target datalayout = "e-m:e-p270:32:32-p271:32:32-p272:64:64-i64:64-i128:128-f80:128-n8:16:32:64-S128"
target triple = "x86_64-pc-linux-gnu"

; Function Attrs: nounwind uwtable
define dso_local zeroext i1 @pgstat_tracks_io_bktype(i32 noundef %0) #0 {
  %2 = alloca i1, align 1
  %3 = alloca i32, align 4
  store i32 %0, ptr %3, align 4
  %4 = load i32, ptr %3, align 4
  switch i32 %4, label %7 [
    i32 0, label %5
    i32 2, label %5
    i32 9, label %5
    i32 16, label %5
    i32 3, label %6
    i32 4, label %6
    i32 1, label %6
    i32 5, label %6
    i32 10, label %6
    i32 11, label %6
    i32 7, label %6
    i32 8, label %6
    i32 12, label %6
    i32 13, label %6
    i32 6, label %6
    i32 14, label %6
    i32 15, label %6
  ]

5:                                                ; preds = %1, %1, %1, %1
  store i1 false, ptr %2, align 1
  br label %8

6:                                                ; preds = %1, %1, %1, %1, %1, %1, %1, %1, %1, %1, %1, %1, %1
  store i1 true, ptr %2, align 1
  br label %8

7:                                                ; preds = %1
  store i1 false, ptr %2, align 1
  br label %8

8:                                                ; preds = %7, %6, %5
  %9 = load i1, ptr %2, align 1
  ret i1 %9
}

; Function Attrs: nounwind uwtable
define dso_local zeroext i1 @pgstat_tracks_io_object(i32 noundef %0, i32 noundef %1, i32 noundef %2) #0 {
  %4 = alloca i1, align 1
  %5 = alloca i32, align 4
  %6 = alloca i32, align 4
  %7 = alloca i32, align 4
  %8 = alloca i8, align 1
  %9 = alloca i32, align 4
  store i32 %0, ptr %5, align 4
  store i32 %1, ptr %6, align 4
  store i32 %2, ptr %7, align 4
  call void @llvm.lifetime.start.p0(i64 1, ptr %8) #8
  %10 = load i32, ptr %5, align 4
  %11 = call zeroext i1 @pgstat_tracks_io_bktype(i32 noundef %10)
  br i1 %11, label %13, label %12

12:                                               ; preds = %3
  store i1 false, ptr %4, align 1
  store i32 1, ptr %9, align 4
  br label %94

13:                                               ; preds = %3
  %14 = load i32, ptr %6, align 4
  %15 = icmp eq i32 %14, 2
  br i1 %15, label %16, label %23

16:                                               ; preds = %13
  %17 = load i32, ptr %7, align 4
  %18 = icmp ne i32 %17, 3
  br i1 %18, label %19, label %23

19:                                               ; preds = %16
  %20 = load i32, ptr %7, align 4
  %21 = icmp ne i32 %20, 2
  br i1 %21, label %22, label %23

22:                                               ; preds = %19
  store i1 false, ptr %4, align 1
  store i32 1, ptr %9, align 4
  br label %94

23:                                               ; preds = %19, %16, %13
  %24 = load i32, ptr %7, align 4
  %25 = icmp ne i32 %24, 3
  br i1 %25, label %26, label %30

26:                                               ; preds = %23
  %27 = load i32, ptr %6, align 4
  %28 = icmp eq i32 %27, 1
  br i1 %28, label %29, label %30

29:                                               ; preds = %26
  store i1 false, ptr %4, align 1
  store i32 1, ptr %9, align 4
  br label %94

30:                                               ; preds = %26, %23
  %31 = load i32, ptr %5, align 4
  %32 = icmp eq i32 %31, 3
  br i1 %32, label %48, label %33

33:                                               ; preds = %30
  %34 = load i32, ptr %5, align 4
  %35 = icmp eq i32 %34, 10
  br i1 %35, label %48, label %36

36:                                               ; preds = %33
  %37 = load i32, ptr %5, align 4
  %38 = icmp eq i32 %37, 11
  br i1 %38, label %48, label %39

39:                                               ; preds = %36
  %40 = load i32, ptr %5, align 4
  %41 = icmp eq i32 %40, 4
  br i1 %41, label %48, label %42

42:                                               ; preds = %39
  %43 = load i32, ptr %5, align 4
  %44 = icmp eq i32 %43, 8
  br i1 %44, label %48, label %45

45:                                               ; preds = %42
  %46 = load i32, ptr %5, align 4
  %47 = icmp eq i32 %46, 12
  br label %48

48:                                               ; preds = %45, %42, %39, %36, %33, %30
  %49 = phi i1 [ true, %42 ], [ true, %39 ], [ true, %36 ], [ true, %33 ], [ true, %30 ], [ %47, %45 ]
  %50 = zext i1 %49 to i8
  store i8 %50, ptr %8, align 1
  %51 = load i8, ptr %8, align 1, !range !8, !noundef !9
  %52 = trunc i8 %51 to i1
  br i1 %52, label %53, label %60

53:                                               ; preds = %48
  %54 = load i32, ptr %7, align 4
  %55 = icmp eq i32 %54, 3
  br i1 %55, label %56, label %60

56:                                               ; preds = %53
  %57 = load i32, ptr %6, align 4
  %58 = icmp eq i32 %57, 1
  br i1 %58, label %59, label %60

59:                                               ; preds = %56
  store i1 false, ptr %4, align 1
  store i32 1, ptr %9, align 4
  br label %94

60:                                               ; preds = %56, %53, %48
  %61 = load i32, ptr %5, align 4
  %62 = icmp eq i32 %61, 11
  br i1 %62, label %66, label %63

63:                                               ; preds = %60
  %64 = load i32, ptr %5, align 4
  %65 = icmp eq i32 %64, 10
  br i1 %65, label %66, label %76

66:                                               ; preds = %63, %60
  %67 = load i32, ptr %7, align 4
  %68 = icmp eq i32 %67, 0
  br i1 %68, label %75, label %69

69:                                               ; preds = %66
  %70 = load i32, ptr %7, align 4
  %71 = icmp eq i32 %70, 1
  br i1 %71, label %75, label %72

72:                                               ; preds = %69
  %73 = load i32, ptr %7, align 4
  %74 = icmp eq i32 %73, 4
  br i1 %74, label %75, label %76

75:                                               ; preds = %72, %69, %66
  store i1 false, ptr %4, align 1
  store i32 1, ptr %9, align 4
  br label %94

76:                                               ; preds = %72, %63
  %77 = load i32, ptr %5, align 4
  %78 = icmp eq i32 %77, 3
  br i1 %78, label %79, label %83

79:                                               ; preds = %76
  %80 = load i32, ptr %7, align 4
  %81 = icmp eq i32 %80, 4
  br i1 %81, label %82, label %83

82:                                               ; preds = %79
  store i1 false, ptr %4, align 1
  store i32 1, ptr %9, align 4
  br label %94

83:                                               ; preds = %79, %76
  %84 = load i32, ptr %5, align 4
  %85 = icmp eq i32 %84, 4
  br i1 %85, label %89, label %86

86:                                               ; preds = %83
  %87 = load i32, ptr %5, align 4
  %88 = icmp eq i32 %87, 3
  br i1 %88, label %89, label %93

89:                                               ; preds = %86, %83
  %90 = load i32, ptr %7, align 4
  %91 = icmp eq i32 %90, 1
  br i1 %91, label %92, label %93

92:                                               ; preds = %89
  store i1 false, ptr %4, align 1
  store i32 1, ptr %9, align 4
  br label %94

93:                                               ; preds = %89, %86
  store i1 true, ptr %4, align 1
  store i32 1, ptr %9, align 4
  br label %94

94:                                               ; preds = %93, %92, %82, %75, %59, %29, %22, %12
  call void @llvm.lifetime.end.p0(i64 1, ptr %8) #8
  %95 = load i1, ptr %4, align 1
  ret i1 %95
}

; Function Attrs: nounwind uwtable
define dso_local zeroext i1 @pgstat_tracks_io_op(i32 noundef %0, i32 noundef %1, i32 noundef %2, i32 noundef %3) #0 {
  %5 = alloca i1, align 1
  %6 = alloca i32, align 4
  %7 = alloca i32, align 4
  %8 = alloca i32, align 4
  %9 = alloca i32, align 4
  %10 = alloca i8, align 1
  %11 = alloca i32, align 4
  store i32 %0, ptr %6, align 4
  store i32 %1, ptr %7, align 4
  store i32 %2, ptr %8, align 4
  store i32 %3, ptr %9, align 4
  call void @llvm.lifetime.start.p0(i64 1, ptr %10) #8
  %12 = load i32, ptr %6, align 4
  %13 = load i32, ptr %7, align 4
  %14 = load i32, ptr %8, align 4
  %15 = call zeroext i1 @pgstat_tracks_io_object(i32 noundef %12, i32 noundef %13, i32 noundef %14)
  br i1 %15, label %17, label %16

16:                                               ; preds = %4
  store i1 false, ptr %5, align 1
  store i32 1, ptr %11, align 4
  br label %153

17:                                               ; preds = %4
  %18 = load i32, ptr %6, align 4
  %19 = icmp eq i32 %18, 10
  br i1 %19, label %20, label %30

20:                                               ; preds = %17
  %21 = load i32, ptr %9, align 4
  %22 = icmp eq i32 %21, 6
  br i1 %22, label %29, label %23

23:                                               ; preds = %20
  %24 = load i32, ptr %9, align 4
  %25 = icmp eq i32 %24, 0
  br i1 %25, label %29, label %26

26:                                               ; preds = %23
  %27 = load i32, ptr %9, align 4
  %28 = icmp eq i32 %27, 2
  br i1 %28, label %29, label %30

29:                                               ; preds = %26, %23, %20
  store i1 false, ptr %5, align 1
  store i32 1, ptr %11, align 4
  br label %153

30:                                               ; preds = %26, %17
  %31 = load i32, ptr %6, align 4
  %32 = icmp eq i32 %31, 11
  br i1 %32, label %33, label %46

33:                                               ; preds = %30
  %34 = load i32, ptr %7, align 4
  %35 = icmp ne i32 %34, 2
  br i1 %35, label %36, label %39

36:                                               ; preds = %33
  %37 = load i32, ptr %9, align 4
  %38 = icmp eq i32 %37, 6
  br i1 %38, label %45, label %39

39:                                               ; preds = %36, %33
  %40 = load i32, ptr %9, align 4
  %41 = icmp eq i32 %40, 0
  br i1 %41, label %45, label %42

42:                                               ; preds = %39
  %43 = load i32, ptr %9, align 4
  %44 = icmp eq i32 %43, 2
  br i1 %44, label %45, label %46

45:                                               ; preds = %42, %39, %36
  store i1 false, ptr %5, align 1
  store i32 1, ptr %11, align 4
  br label %153

46:                                               ; preds = %42, %30
  %47 = load i32, ptr %6, align 4
  %48 = icmp eq i32 %47, 3
  br i1 %48, label %55, label %49

49:                                               ; preds = %46
  %50 = load i32, ptr %6, align 4
  %51 = icmp eq i32 %50, 10
  br i1 %51, label %55, label %52

52:                                               ; preds = %49
  %53 = load i32, ptr %6, align 4
  %54 = icmp eq i32 %53, 11
  br i1 %54, label %55, label %59

55:                                               ; preds = %52, %49, %46
  %56 = load i32, ptr %9, align 4
  %57 = icmp eq i32 %56, 5
  br i1 %57, label %58, label %59

58:                                               ; preds = %55
  store i1 false, ptr %5, align 1
  store i32 1, ptr %11, align 4
  br label %153

59:                                               ; preds = %55, %52
  %60 = load i32, ptr %7, align 4
  %61 = icmp eq i32 %60, 2
  br i1 %61, label %62, label %81

62:                                               ; preds = %59
  %63 = load i32, ptr %9, align 4
  %64 = icmp eq i32 %63, 6
  br i1 %64, label %65, label %81

65:                                               ; preds = %62
  %66 = load i32, ptr %6, align 4
  %67 = icmp eq i32 %66, 13
  br i1 %67, label %80, label %68

68:                                               ; preds = %65
  %69 = load i32, ptr %6, align 4
  %70 = icmp eq i32 %69, 10
  br i1 %70, label %80, label %71

71:                                               ; preds = %68
  %72 = load i32, ptr %6, align 4
  %73 = icmp eq i32 %72, 4
  br i1 %73, label %80, label %74

74:                                               ; preds = %71
  %75 = load i32, ptr %6, align 4
  %76 = icmp eq i32 %75, 4
  br i1 %76, label %80, label %77

77:                                               ; preds = %74
  %78 = load i32, ptr %6, align 4
  %79 = icmp eq i32 %78, 15
  br i1 %79, label %80, label %81

80:                                               ; preds = %77, %74, %71, %68, %65
  store i1 false, ptr %5, align 1
  store i32 1, ptr %11, align 4
  br label %153

81:                                               ; preds = %77, %62, %59
  %82 = load i32, ptr %7, align 4
  %83 = icmp eq i32 %82, 1
  br i1 %83, label %84, label %91

84:                                               ; preds = %81
  %85 = load i32, ptr %9, align 4
  %86 = icmp eq i32 %85, 1
  br i1 %86, label %90, label %87

87:                                               ; preds = %84
  %88 = load i32, ptr %9, align 4
  %89 = icmp eq i32 %88, 4
  br i1 %89, label %90, label %91

90:                                               ; preds = %87, %84
  store i1 false, ptr %5, align 1
  store i32 1, ptr %11, align 4
  br label %153

91:                                               ; preds = %87, %81
  %92 = load i32, ptr %8, align 4
  %93 = icmp eq i32 %92, 0
  br i1 %93, label %94, label %98

94:                                               ; preds = %91
  %95 = load i32, ptr %9, align 4
  %96 = icmp eq i32 %95, 5
  br i1 %96, label %97, label %98

97:                                               ; preds = %94
  store i1 false, ptr %5, align 1
  store i32 1, ptr %11, align 4
  br label %153

98:                                               ; preds = %94, %91
  %99 = load i32, ptr %8, align 4
  %100 = icmp eq i32 %99, 0
  br i1 %100, label %107, label %101

101:                                              ; preds = %98
  %102 = load i32, ptr %8, align 4
  %103 = icmp eq i32 %102, 1
  br i1 %103, label %107, label %104

104:                                              ; preds = %101
  %105 = load i32, ptr %8, align 4
  %106 = icmp eq i32 %105, 4
  br label %107

107:                                              ; preds = %104, %101, %98
  %108 = phi i1 [ true, %101 ], [ true, %98 ], [ %106, %104 ]
  %109 = zext i1 %108 to i8
  store i8 %109, ptr %10, align 1
  %110 = load i8, ptr %10, align 1, !range !8, !noundef !9
  %111 = trunc i8 %110 to i1
  br i1 %111, label %116, label %112

112:                                              ; preds = %107
  %113 = load i32, ptr %9, align 4
  %114 = icmp eq i32 %113, 3
  br i1 %114, label %115, label %116

115:                                              ; preds = %112
  store i1 false, ptr %5, align 1
  store i32 1, ptr %11, align 4
  br label %153

116:                                              ; preds = %112, %107
  %117 = load i32, ptr %7, align 4
  %118 = icmp eq i32 %117, 2
  br i1 %118, label %119, label %129

119:                                              ; preds = %116
  %120 = load i32, ptr %8, align 4
  %121 = icmp eq i32 %120, 2
  br i1 %121, label %122, label %129

122:                                              ; preds = %119
  %123 = load i32, ptr %9, align 4
  %124 = icmp eq i32 %123, 7
  br i1 %124, label %129, label %125

125:                                              ; preds = %122
  %126 = load i32, ptr %9, align 4
  %127 = icmp eq i32 %126, 1
  br i1 %127, label %129, label %128

128:                                              ; preds = %125
  store i1 false, ptr %5, align 1
  store i32 1, ptr %11, align 4
  br label %153

129:                                              ; preds = %125, %122, %119, %116
  %130 = load i32, ptr %7, align 4
  %131 = icmp eq i32 %130, 2
  br i1 %131, label %132, label %145

132:                                              ; preds = %129
  %133 = load i32, ptr %8, align 4
  %134 = icmp eq i32 %133, 3
  br i1 %134, label %135, label %145

135:                                              ; preds = %132
  %136 = load i32, ptr %9, align 4
  %137 = icmp eq i32 %136, 7
  br i1 %137, label %145, label %138

138:                                              ; preds = %135
  %139 = load i32, ptr %9, align 4
  %140 = icmp eq i32 %139, 6
  br i1 %140, label %145, label %141

141:                                              ; preds = %138
  %142 = load i32, ptr %9, align 4
  %143 = icmp eq i32 %142, 1
  br i1 %143, label %145, label %144

144:                                              ; preds = %141
  store i1 false, ptr %5, align 1
  store i32 1, ptr %11, align 4
  br label %153

145:                                              ; preds = %141, %138, %135, %132, %129
  %146 = load i8, ptr %10, align 1, !range !8, !noundef !9
  %147 = trunc i8 %146 to i1
  br i1 %147, label %148, label %152

148:                                              ; preds = %145
  %149 = load i32, ptr %9, align 4
  %150 = icmp eq i32 %149, 1
  br i1 %150, label %151, label %152

151:                                              ; preds = %148
  store i1 false, ptr %5, align 1
  store i32 1, ptr %11, align 4
  br label %153

152:                                              ; preds = %148, %145
  store i1 true, ptr %5, align 1
  store i32 1, ptr %11, align 4
  br label %153

153:                                              ; preds = %152, %151, %144, %128, %115, %97, %90, %80, %58, %45, %29, %16
  call void @llvm.lifetime.end.p0(i64 1, ptr %10) #8
  %154 = load i1, ptr %5, align 1
  ret i1 %154
}