; Function Attrs: mustprogress nofree norecurse nosync nounwind willreturn memory(none) uwtable
define dso_local zeroext i1 @pgstat_tracks_io_op(i32 noundef %0, i32 noundef %1, i32 noundef %2, i32 noundef %3) local_unnamed_addr #2 {
  switch i32 %0, label %pgstat_tracks_io_object.exit.thread [
    i32 15, label %5
    i32 14, label %5
    i32 6, label %5
    i32 13, label %5
    i32 3, label %5
    i32 4, label %5
    i32 1, label %5
    i32 5, label %5
    i32 10, label %5
    i32 11, label %5
    i32 7, label %5
    i32 8, label %5
    i32 12, label %5
  ]

5:                                                ; preds = %4, %4, %4, %4, %4, %4, %4, %4, %4, %4, %4, %4, %4
  %6 = icmp eq i32 %1, 2
  %7 = add i32 %2, -4
  %8 = icmp ult i32 %7, -2
  %or.cond3.i = and i1 %6, %8
  br i1 %or.cond3.i, label %pgstat_tracks_io_object.exit.thread, label %9

9:                                                ; preds = %5
  %10 = icmp ne i32 %2, 3
  %11 = icmp eq i32 %1, 1
  %or.cond5.i = and i1 %11, %10
  br i1 %or.cond5.i, label %pgstat_tracks_io_object.exit.thread, label %12

12:                                               ; preds = %9
  %13 = icmp eq i32 %0, 3
  switch i32 %0, label %switch.edge.thread.i [
    i32 11, label %switch.edge.i
    i32 10, label %switch.edge.i
    i32 8, label %switch.edge.i
    i32 4, label %switch.edge.i
    i32 3, label %switch.edge.i
    i32 12, label %switch.edge.i
  ]

switch.edge.i:                                    ; preds = %12, %12, %12, %12, %12, %12
  %14 = icmp eq i32 %2, 3
  %or.cond17.i = and i1 %11, %14
  br i1 %or.cond17.i, label %pgstat_tracks_io_object.exit.thread, label %switch.edge.thread.i

switch.edge.thread.i:                             ; preds = %switch.edge.i, %12
  %15 = and i32 %0, -2
  %or.cond19.i = icmp eq i32 %15, 10
  br i1 %or.cond19.i, label %16, label %17

16:                                               ; preds = %switch.edge.thread.i
  switch i32 %2, label %pgstat_tracks_io_object.exit.thread98 [
    i32 4, label %pgstat_tracks_io_object.exit.thread
    i32 1, label %pgstat_tracks_io_object.exit.thread
    i32 0, label %pgstat_tracks_io_object.exit.thread
  ]

17:                                               ; preds = %switch.edge.thread.i
  %18 = icmp eq i32 %2, 4
  %or.cond25.i = and i1 %13, %18
  br i1 %or.cond25.i, label %pgstat_tracks_io_object.exit.thread, label %pgstat_tracks_io_object.exit

pgstat_tracks_io_object.exit:                     ; preds = %17
  %19 = add nsw i32 %0, -5
  %or.cond27.i = icmp ult i32 %19, -2
  %20 = icmp ne i32 %2, 1
  %or.cond29.not.i = or i1 %or.cond27.i, %20
  br i1 %or.cond29.not.i, label %pgstat_tracks_io_object.exit.thread98, label %pgstat_tracks_io_object.exit.thread

pgstat_tracks_io_object.exit.thread98:            ; preds = %16, %pgstat_tracks_io_object.exit
  switch i32 %0, label %27 [
    i32 10, label %21
    i32 11, label %22
  ]

21:                                               ; preds = %pgstat_tracks_io_object.exit.thread98
  switch i32 %3, label %27 [
    i32 6, label %pgstat_tracks_io_object.exit.thread
    i32 2, label %pgstat_tracks_io_object.exit.thread
    i32 0, label %pgstat_tracks_io_object.exit.thread
  ]

22:                                               ; preds = %pgstat_tracks_io_object.exit.thread98
  %23 = icmp ne i32 %1, 2
  %24 = icmp eq i32 %3, 6
  %or.cond5 = and i1 %23, %24
  %25 = and i32 %3, -3
  %26 = icmp eq i32 %25, 0
  %or.cond9 = or i1 %or.cond5, %26
  br i1 %or.cond9, label %pgstat_tracks_io_object.exit.thread, label %27

27:                                               ; preds = %21, %pgstat_tracks_io_object.exit.thread98, %22
  %or.cond13 = or i1 %13, %or.cond19.i
  %28 = icmp eq i32 %3, 5
  %or.cond15 = and i1 %or.cond13, %28
  br i1 %or.cond15, label %pgstat_tracks_io_object.exit.thread, label %29

29:                                               ; preds = %27
  %30 = icmp eq i32 %3, 6
  %or.cond17 = and i1 %6, %30
  br i1 %or.cond17, label %31, label %34

31:                                               ; preds = %29
  %switch.tableidx = add i32 %0, -4
  %32 = icmp ult i32 %switch.tableidx, 12
  br i1 %32, label %switch.hole_check, label %.thread103

.thread103:                                       ; preds = %switch.hole_check, %31
  %or.cond31104 = icmp ult i32 %2, 2
  %33 = icmp eq i32 %2, 4
  %spec.select105 = or i1 %or.cond31104, %33
  br label %40

34:                                               ; preds = %29
  br i1 %11, label %35, label %36

35:                                               ; preds = %34
  switch i32 %3, label %36 [
    i32 4, label %pgstat_tracks_io_object.exit.thread
    i32 1, label %pgstat_tracks_io_object.exit.thread
  ]

36:                                               ; preds = %35, %34
  %37 = icmp eq i32 %2, 0
  %or.cond29 = and i1 %37, %28
  br i1 %or.cond29, label %pgstat_tracks_io_object.exit.thread, label %38

38:                                               ; preds = %36
  %or.cond31 = icmp ult i32 %2, 2
  %39 = icmp eq i32 %2, 4
  %spec.select = or i1 %or.cond31, %39
  %.not = icmp eq i32 %3, 3
  br i1 %.not, label %switch.early.test96, label %40

switch.early.test96:                              ; preds = %38
  switch i32 %2, label %pgstat_tracks_io_object.exit.thread [
    i32 4, label %40
    i32 1, label %40
    i32 0, label %40
  ]

40:                                               ; preds = %.thread103, %switch.early.test96, %switch.early.test96, %switch.early.test96, %38
  %spec.select106 = phi i1 [ %spec.select105, %.thread103 ], [ %spec.select, %switch.early.test96 ], [ %spec.select, %switch.early.test96 ], [ %spec.select, %switch.early.test96 ], [ %spec.select, %38 ]
  %41 = icmp eq i32 %2, 2
  %or.cond35 = and i1 %6, %41
  %42 = icmp eq i32 %3, 1
  br i1 %or.cond35, label %switch.early.test, label %43

switch.early.test:                                ; preds = %40
  switch i32 %3, label %pgstat_tracks_io_object.exit.thread [
    i32 7, label %.thread107
    i32 1, label %.thread107
  ]

43:                                               ; preds = %40
  %44 = icmp eq i32 %2, 3
  %or.cond41 = and i1 %6, %44
  br i1 %or.cond41, label %switch.early.test95, label %.thread107

switch.early.test95:                              ; preds = %43
  switch i32 %3, label %pgstat_tracks_io_object.exit.thread [
    i32 7, label %.thread107
    i32 6, label %.thread107
    i32 1, label %.thread107
  ]

.thread107:                                       ; preds = %switch.early.test, %switch.early.test, %switch.early.test95, %switch.early.test95, %switch.early.test95, %43
  %or.cond49 = and i1 %42, %spec.select106
  %not.or.cond49 = xor i1 %or.cond49, true
  br label %pgstat_tracks_io_object.exit.thread

switch.hole_check:                                ; preds = %31
  %switch.maskindex = trunc nuw i32 %switch.tableidx to i16
  %switch.shifted = lshr i16 2625, %switch.maskindex
  %switch.lobit = trunc i16 %switch.shifted to i1
  br i1 %switch.lobit, label %pgstat_tracks_io_object.exit.thread, label %.thread103

pgstat_tracks_io_object.exit.thread:              ; preds = %switch.hole_check, %4, %17, %16, %16, %16, %switch.edge.i, %9, %5, %switch.early.test96, %.thread107, %switch.early.test95, %switch.early.test, %36, %35, %35, %27, %22, %21, %21, %21, %pgstat_tracks_io_object.exit
  %.0 = phi i1 [ false, %pgstat_tracks_io_object.exit ], [ false, %21 ], [ false, %21 ], [ false, %21 ], [ false, %22 ], [ false, %27 ], [ false, %35 ], [ false, %35 ], [ false, %36 ], [ false, %switch.early.test96 ], [ false, %switch.early.test ], [ false, %switch.early.test95 ], [ %not.or.cond49, %.thread107 ], [ false, %5 ], [ false, %9 ], [ false, %switch.edge.i ], [ false, %16 ], [ false, %16 ], [ false, %16 ], [ false, %17 ], [ false, %4 ], [ false, %switch.hole_check ]
  ret i1 %.0
}